ccopy_reg
_reconstructor
p0
(csklearn.preprocessing.data
StandardScaler
p1
c__builtin__
object
p2
Ntp3
Rp4
(dp5
S'scale_'
p6
cnumpy.core.multiarray
_reconstruct
p7
(cnumpy
ndarray
p8
(I0
tp9
S'b'
p10
tp11
Rp12
(I1
(L4L
tp13
cnumpy
dtype
p14
(S'f8'
p15
I0
I1
tp16
Rp17
(I3
S'<'
p18
NNNI-1
I-1
I0
tp19
bI00
S"}\x8b\x19\xaf\t\xc3\xff?Q\x88'\x05\xc7\xb7\x1b@\x17)\xd3/Q\xfds?d\xe2\xf2\xebk\xf6\x85?"
p20
tp21
bsS'with_mean'
p22
I01
sS'var_'
p23
g7
(g8
(I0
tp24
g10
tp25
Rp26
(I1
(L4L
tp27
g17
I00
S'\xd2sJ\x81\x87\x86\x0f@Mr\xd3I?\x02H@S\xec\xb9jK\xf9\xf8>`\xf0\xcc\x84\xae%\x1e?'
p28
tp29
bsS'mean_'
p30
g7
(g8
(I0
tp31
g10
tp32
Rp33
(I1
(L4L
tp34
g17
I00
S'L7\x89A`\xe5\x07@6Ru\r\xf6\xe5&@}JW<\x99aD@\xcd\xe2:@\x8b~R\xc0'
p35
tp36
bsS'with_std'
p37
I01
sS'n_samples_seen_'
p38
L14000L
sS'copy'
p39
I01
sb.